00000000  401E1000  		ADDI	R30,R0,1000		;;	R30 <- @STACK
00000004  FC1EB240  		ADD	R22,R0,R30
00000008  FD084246  		XOR	R8,R8,R8
0000000C  E8000024  		J	24			;;	goto @1@20
00000010  31180184  		LF	F24,184[R8]		;; @1@10:
00000014  EC000030  		JAL	30			;;	goto @SIN
00000018  FC000240  		ADD	R0,R0,R0		;;		'NOP'
0000001C  391C01B4  		SF	1B4[R8],F28
00000020  EC000058  		JAL	58			;;	goto @COS
00000024  FC000240  		ADD	R0,R0,R0		;;		'NOP'
00000028  391C01E4  		SF	1E4[R8],F28
0000002C  41080004  		ADDI	R8,R8,4
00000030  6D17001C  		SLTI	R23,R8,1C		;; @1@20:
00000034  02E0FFDC  		BEQZ	R23,FFDC		;; se R8 < NITENS goto @1@10
00000038  F8000000  		HALT
0000003C   *ERRO*   		:
00000040   *ERRO*   		:
00000044  47DE0008  		SUBI	R30,R30,8		;; @SIN:
00000048  2FDF0000  		SW	0[R30],R31
0000004C  2FD60004  		SW	4[R30],R22
00000050  47DE0004  		SUBI	R30,R30,4
00000054  3BC80000  		SF	0[R30],F8
00000058  3008016C  		LF	F8,16C[R0]		;;		n = 1	(C1)
0000005C  E8000048  		J	48			;;	goto @2@10
00000060   *ERRO*   
00000064   *ERRO*   		:
00000068   *ERRO*   		:
0000006C   *ERRO*   		:
00000070   *ERRO*   
00000074  47DE0008  		SUBI	R30,R30,8		;; @COS:
00000078  2FDF0000  		SW	0[R30],R31
0000007C  2FD60004  		SW	4[R30],R22
00000080  47DE0004  		SUBI	R30,R30,4
00000084  3BC80000  		SF	0[R30],F8
00000088  30080168  		LF	F8,168[R0]		;;		n = 0	(C0)
0000008C  E8000018  		J	18			;;	goto @2@10
00000090   *ERRO*   
00000094   *ERRO*   		:
00000098   *ERRO*   		:
0000009C   *ERRO*   		:
000000A0   *ERRO*   
000000A4  47DE0020  		SUBI	R30,R30,20		;; @2@10:
000000A8  3BC90000  		SF	0[R30],F9
000000AC  3BCA0004  		SF	4[R30],F10
000000B0  3BCB0008  		SF	8[R30],F11
000000B4  3BCC000C  		SF	C[R30],F12
000000B8  3BCD0010  		SF	10[R30],F13
000000BC  3BCE0014  		SF	14[R30],F14
000000C0  3BCF0018  		SF	18[R30],F15
000000C4  3BD0001C  		SF	1C[R30],F16
000000C8  FC1EB240  		ADD	R22,R0,R30
000000CC  300D016C  		LF	F13,16C[R0]		;;			(C1)
000000D0  300E0168  		LF	F14,168[R0]		;;			(C0)
000000D4  30100170  		LF	F16,170[R0]		;;			(C)
000000D8  FDC04812  		MOVF	F9,F14			;;		r = 0
000000DC  FDA05012  		MOVF	F10,F13			;;		sign = 1
000000E0  FD005812  		MOVF	F11,F8			;; @2@20:	a = n
000000E4  FDA06012  		MOVF	F12,F13			;;		b = 1
000000E8  E8000010  		J	10			;;	goto @2@40
000000EC  FD986405  		MULTF	F12,F12,F24		;; @2@30:	b *= ang
000000F0  FD8B6407  		DIVF	F12,F12,F11		;;		b /= a
000000F4  FD6D5C03  		SUBF	F11,F11,F13		;;		a -= 1
000000F8  FD607415  		SGTF	F11,F14			;; @2@40:
000000FC  E3FFFFF0  		BFPT	FFFFFFF0		;; se a > 0 goto @2@30
00000100  FD4C7C05  		MULTF	F15,F10,F12		;;		tmp = sign * b
00000104  FD2F4C01  		ADDF	F9,F9,F15		;;		r += b
00000108  FDCA5403  		SUBF	F10,F14,F10		;;		sign = -sign
0000010C  FD0D4401  		ADDF	F8,F8,F13		;;
00000110  FD0D4401  		ADDF	F8,F8,F13		;;		n += 2
00000114  FD808415  		SGTF	F12,F16
00000118  E3FFFFC8  		BFPT	FFFFFFC8		;; se b > 0 goto @2@20
0000011C  FD20E012  		MOVF	F28,F9
00000120  33C90000  		LF	F9,0[R30]
00000124  33CA0004  		LF	F10,4[R30]
00000128  33CB0008  		LF	F11,8[R30]
0000012C  33CC000C  		LF	F12,C[R30]
00000130  33CD0010  		LF	F13,10[R30]
00000134  33CE0014  		LF	F14,14[R30]
00000138  33CF0018  		LF	F15,18[R30]
0000013C  33D00020  		LF	F16,20[R30]
00000140  43DE0020  		ADDI	R30,R30,20
00000144  33C80000  		LF	F8,0[R30]
00000148  43DE0004  		ADDI	R30,R30,4
0000014C  2BDF0000  		LW	R31,0[R30]
00000150  2BD60004  		LW	R22,4[R30]
00000154  43DE0008  		ADDI	R30,R30,8
00000158  0BE00000  		JR	R31
0000015C   *ERRO*   
00000160   *ERRO*   		:
00000164   *ERRO*   
00000168  00000000  		DF	0			;; @C0:
0000016C  3F800000  		DF	1			;; @C1:
00000170  38D1B717  		DF	0.0001			;; @C:	precision
00000174   *ERRO*   
00000178   *ERRO*   		:
0000017C   *ERRO*   		:
00000180   *ERRO*   
00000184  00000000  		DF	0			;; @VANG:	( 0d)
00000188  3E860A92  		DF	0.261799388		;;		(15d)
0000018C  3F060A92  		DF	0.523598776		;;		(30d)
00000190  3F490FDB  		DF	0.785398163		;;		(45d)
00000194  3F860A92  		DF	1.047197551		;;		(60d)
00000198  3FA78D36  		DF	1.308996939		;;		(75d)
0000019C  3FC90FDB  		DF	1.570796327		;;		(90d)
000001A0   *ERRO*   
000001A4   *ERRO*   		:
000001A8   *ERRO*   		:
000001AC   *ERRO*   		:
000001B0   *ERRO*   
000001B4  00000000  		DF	0			;; @VSIN:
000001B8  00000000  		DF	0
000001BC  00000000  		DF	0
000001C0  00000000  		DF	0
000001C4  00000000  		DF	0
000001C8  00000000  		DF	0
000001CC  00000000  		DF	0
000001D0   *ERRO*   
000001D4   *ERRO*   		:
000001D8   *ERRO*   		:
000001DC   *ERRO*   		:
000001E0   *ERRO*   
000001E4  00000000  		DF	0			;; @VCOS:
000001E8  00000000  		DF	0
000001EC  00000000  		DF	0
000001F0  00000000  		DF	0
000001F4  00000000  		DF	0
000001F8  00000000  		DF	0
000001FC  00000000  		DF	0
00000200   *ERRO*   
00000204   *ERRO*   		:
00000208   *ERRO*   		:
0000020C   *ERRO*   		:
